; ModuleID = 'source-C-CXX/16/1477.c'
source_filename = "source-C-CXX/16/1477.c"
target datalayout = "e-m:e-p270:32:32-p271:32:32-p272:64:64-i64:64-f80:128-n8:16:32:64-S128"
target triple = "x86_64-pc-linux-gnu"

@s2 = dso_local global [101 x i8] zeroinitializer, align 16
@.str = private unnamed_addr constant [4 x i8] c"%d\0A\00", align 1
@.str.1 = private unnamed_addr constant [3 x i8] c"%s\00", align 1

; Function Attrs: nofree nosync nounwind sspstrong uwtable
define dso_local i32 @ma(i8* %0, i32 %1, i32 %2) local_unnamed_addr #0 {
  br label %4

4:                                                ; preds = %29, %3
  %5 = phi i32 [ %32, %29 ], [ 0, %3 ]
  %6 = phi i32 [ %30, %29 ], [ %1, %3 ]
  %7 = phi i32 [ %31, %29 ], [ %2, %3 ]
  %8 = sext i32 %6 to i64
  br label %9

9:                                                ; preds = %4, %41
  %10 = phi i64 [ %8, %4 ], [ %43, %41 ]
  %11 = getelementptr inbounds i8, i8* %0, i64 %10
  %12 = load i8, i8* %11, align 1, !tbaa !5
  switch i8 %12, label %41 [
    i8 0, label %13
    i8 40, label %15
    i8 41, label %25
  ]

13:                                               ; preds = %9
  %14 = getelementptr inbounds [101 x i8], [101 x i8]* @s2, i64 0, i64 %10
  store i8 0, i8* %14, align 1, !tbaa !5
  br label %44

15:                                               ; preds = %9
  %16 = trunc i64 %10 to i32
  %17 = add nsw i32 %16, 1
  %18 = add nsw i32 %7, 1
  %19 = tail call i32 @ma(i8* nonnull %0, i32 %17, i32 %18)
  %20 = icmp eq i32 %19, 0
  %21 = getelementptr inbounds [101 x i8], [101 x i8]* @s2, i64 0, i64 %10
  br i1 %20, label %24, label %22

22:                                               ; preds = %15
  store i8 32, i8* %21, align 1, !tbaa !5
  %23 = add nsw i32 %19, -1
  br label %44

24:                                               ; preds = %15
  store i8 36, i8* %21, align 1, !tbaa !5
  br label %44

25:                                               ; preds = %9
  %26 = icmp eq i32 %7, 0
  %27 = trunc i64 %10 to i32
  %28 = getelementptr inbounds [101 x i8], [101 x i8]* @s2, i64 0, i64 %10
  br i1 %26, label %35, label %29

29:                                               ; preds = %25
  store i8 32, i8* %28, align 1, !tbaa !5
  %30 = add nsw i32 %27, 1
  %31 = add nsw i32 %7, -1
  %32 = add nuw nsw i32 %5, 1
  br label %4

33:                                               ; preds = %44, %35
  %34 = phi i32 [ %40, %35 ], [ %46, %44 ]
  ret i32 %34

35:                                               ; preds = %25
  %36 = trunc i64 %10 to i32
  store i8 63, i8* %28, align 1, !tbaa !5
  %37 = add nsw i32 %36, 1
  %38 = tail call i32 @ma(i8* nonnull %0, i32 %37, i32 0)
  %39 = add nuw i32 %2, 1
  %40 = add i32 %39, %38
  br label %33

41:                                               ; preds = %9
  %42 = getelementptr inbounds [101 x i8], [101 x i8]* @s2, i64 0, i64 %10
  store i8 32, i8* %42, align 1, !tbaa !5
  %43 = add i64 %10, 1
  br label %9

44:                                               ; preds = %24, %22, %13
  %45 = phi i32 [ 0, %13 ], [ %23, %22 ], [ 0, %24 ]
  %46 = add nsw i32 %45, %5
  br label %33
}

; Function Attrs: argmemonly mustprogress nofree nosync nounwind willreturn
declare void @llvm.lifetime.start.p0i8(i64 immarg, i8* nocapture) #1

; Function Attrs: argmemonly mustprogress nofree nosync nounwind willreturn
declare void @llvm.lifetime.end.p0i8(i64 immarg, i8* nocapture) #1

; Function Attrs: nounwind sspstrong uwtable
define dso_local i32 @main() local_unnamed_addr #2 {
  %1 = alloca i32, align 4
  %2 = alloca [101 x i8], align 16
  %3 = bitcast i32* %1 to i8*
  call void @llvm.lifetime.start.p0i8(i64 4, i8* nonnull %3) #6
  %4 = call i32 (i8*, ...) @__isoc99_scanf(i8* getelementptr inbounds ([4 x i8], [4 x i8]* @.str, i64 0, i64 0), i32* nonnull %1)
  %5 = getelementptr inbounds [101 x i8], [101 x i8]* %2, i64 0, i64 0
  call void @llvm.lifetime.start.p0i8(i64 101, i8* nonnull %5) #6
  %6 = load i32, i32* %1, align 4, !tbaa !8
  %7 = icmp eq i32 %6, 0
  br i1 %7, label %21, label %8

8:                                                ; preds = %0, %17
  %9 = phi i32 [ %19, %17 ], [ %6, %0 ]
  %10 = add nsw i32 %9, -1
  store i32 %10, i32* %1, align 4, !tbaa !8
  %11 = call i32 (i8*, ...) bitcast (i32 (...)* @gets to i32 (i8*, ...)*)(i8* nonnull %5) #6
  %12 = call i32 @puts(i8* nonnull %5)
  %13 = call i32 @ma(i8* nonnull %5, i32 0, i32 0)
  %14 = call i32 (i8*, ...) @printf(i8* nonnull dereferenceable(1) getelementptr inbounds ([3 x i8], [3 x i8]* @.str.1, i64 0, i64 0), i8* getelementptr inbounds ([101 x i8], [101 x i8]* @s2, i64 0, i64 0))
  %15 = load i32, i32* %1, align 4, !tbaa !8
  %16 = icmp eq i32 %15, 0
  br i1 %16, label %21, label %17

17:                                               ; preds = %8
  %18 = call i32 @putchar(i32 10)
  %19 = load i32, i32* %1, align 4, !tbaa !8
  %20 = icmp eq i32 %19, 0
  br i1 %20, label %21, label %8, !llvm.loop !10

21:                                               ; preds = %8, %17, %0
  call void @llvm.lifetime.end.p0i8(i64 101, i8* nonnull %5) #6
  call void @llvm.lifetime.end.p0i8(i64 4, i8* nonnull %3) #6
  ret i32 0
}

; Function Attrs: nofree nounwind
declare noundef i32 @__isoc99_scanf(i8* nocapture noundef readonly, ...) local_unnamed_addr #3

declare i32 @gets(...) local_unnamed_addr #4

; Function Attrs: nofree nounwind
declare noundef i32 @puts(i8* nocapture noundef readonly) local_unnamed_addr #3

; Function Attrs: nofree nounwind
declare noundef i32 @printf(i8* nocapture noundef readonly, ...) local_unnamed_addr #3

; Function Attrs: nofree nounwind
declare noundef i32 @putchar(i32 noundef) local_unnamed_addr #5


!llvm.module.flags = !{!0, !1, !2, !3}
!llvm.ident = !{!4}

!0 = !{i32 1, !"wchar_size", i32 4}
!1 = !{i32 7, !"PIC Level", i32 2}
!2 = !{i32 7, !"PIE Level", i32 2}
!3 = !{i32 7, !"uwtable", i32 1}
!4 = !{!"clang version 13.0.0"}
!5 = !{!6, !6, i64 0}
!6 = !{!"omnipotent char", !7, i64 0}
!7 = !{!"Simple C/C++ TBAA"}
!8 = !{!9, !9, i64 0}
!9 = !{!"int", !6, i64 0}
!10 = distinct !{!10, !11}
!11 = !{!"llvm.loop.mustprogress"}
